; Function Attrs: mustprogress null_pointer_is_valid sspstrong uwtable
define void @_ZN15RtpPlayerDialog22getFormatedHoveredTimeEv(ptr dead_on_unwind noalias writable sret(%class.QString) align 8 %0, ptr noundef readonly align 8 captures(none) dereferenceable_or_null(472) %1) local_unnamed_addr #0 align 2 {
  %3 = alloca %class.QPointF, align 8
  %4 = alloca %class.QPoint, align 8
  %5 = getelementptr inbounds nuw i8, ptr %1, i64 144
  %6 = load ptr, ptr %5, align 8
  %7 = getelementptr inbounds nuw i8, ptr %6, i64 312
  %8 = load ptr, ptr %7, align 8
  call void @llvm.lifetime.start.p0(i64 8, ptr nonnull %4) #26
  %9 = tail call i64 @_ZN7QCursor3posEv()
  store i64 %9, ptr %4, align 8
  %10 = call i64 @_ZNK7QWidget13mapFromGlobalERK6QPoint(ptr noundef align 8 dereferenceable_or_null(40) %8, ptr noundef nonnull align 4 dereferenceable(8) %4)
  %.sroa.0.0.extract.trunc = trunc i64 %10 to i32
  %.sroa.4.0.extract.shift = lshr i64 %10, 32
  call void @llvm.lifetime.end.p0(i64 8, ptr nonnull %4) #26
  %.sroa.2.0.extract.trunc.i = trunc nuw i64 %.sroa.4.0.extract.shift to i32
  %11 = load ptr, ptr %5, align 8
  %12 = getelementptr inbounds nuw i8, ptr %11, i64 312
  %13 = load ptr, ptr %12, align 8
  call void @llvm.lifetime.start.p0(i64 16, ptr nonnull %3) #26
  %14 = sitofp i32 %.sroa.0.0.extract.trunc to double
  store double %14, ptr %3, align 8
  %15 = getelementptr inbounds nuw i8, ptr %3, i64 8
  %16 = sitofp i32 %.sroa.2.0.extract.trunc.i to double
  store double %16, ptr %15, align 8
  %17 = call noundef ptr @_ZNK11QCustomPlot11plottableAtERK7QPointFbPi(ptr noundef align 8 dereferenceable_or_null(513) %13, ptr noundef nonnull align 8 dereferenceable(16) %3, i1 noundef zeroext false, ptr noundef null)
  call void @llvm.lifetime.end.p0(i64 16, ptr nonnull %3) #26
  %.not.i = icmp eq ptr %17, null
  br i1 %.not.i, label %_ZN15RtpPlayerDialog16findItemByCoordsE6QPoint.exit.thread, label %_ZN15RtpPlayerDialog16findItemByCoordsE6QPoint.exit

_ZN15RtpPlayerDialog16findItemByCoordsE6QPoint.exit: ; preds = %2
  %18 = call noundef ptr @_ZN15RtpPlayerDialog8findItemEP20QCPAbstractPlottable(ptr noundef readonly align 8 dereferenceable_or_null(472) %1, ptr noundef nonnull %17)
  %.not = icmp eq ptr %18, null
  br i1 %.not, label %_ZN15RtpPlayerDialog16findItemByCoordsE6QPoint.exit.thread, label %19

_ZN15RtpPlayerDialog16findItemByCoordsE6QPoint.exit.thread: ; preds = %2, %_ZN15RtpPlayerDialog16findItemByCoordsE6QPoint.exit
  call void @_ZNK11QMetaObject2trEPKcS1_i(ptr dead_on_unwind writable sret(%class.QString) align 8 %0, ptr noundef nonnull align 8 dereferenceable_or_null(56) @_ZN15RtpPlayerDialog16staticMetaObjectE, ptr noundef nonnull @.str.64, ptr noundef null, i32 noundef -1)
  br label %26

19:                                               ; preds = %_ZN15RtpPlayerDialog16findItemByCoordsE6QPoint.exit
  %20 = load ptr, ptr %5, align 8
  %21 = getelementptr inbounds nuw i8, ptr %20, i64 312
  %22 = load ptr, ptr %21, align 8
  %23 = getelementptr inbounds nuw i8, ptr %22, i64 40
  %24 = load ptr, ptr %23, align 8
  %25 = call noundef double @_ZNK7QCPAxis12pixelToCoordEd(ptr noundef align 8 dereferenceable_or_null(472) %24, double noundef %14)
  call void @_ZN15RtpPlayerDialog15getFormatedTimeEd(ptr dead_on_unwind writable sret(%class.QString) align 8 %0, ptr noundef align 8 dereferenceable_or_null(472) %1, double noundef %25)
  br label %26

26:                                               ; preds = %19, %_ZN15RtpPlayerDialog16findItemByCoordsE6QPoint.exit.thread
  ret void
}